; Function Attrs: mustprogress nounwind uwtable
define dso_local { ptr, i64 } @_ZN4llvm3sys4path9extensionENS_9StringRefENS1_5StyleE(ptr %0, i64 %1, i32 noundef %2) local_unnamed_addr #0 {
  %4 = alloca %"class.llvm::sys::path::reverse_iterator", align 8
  call void @llvm.lifetime.start.p0(i64 48, ptr nonnull %4)
  %5 = getelementptr inbounds i8, ptr %4, i64 16
  call void @llvm.memset.p0.i64(ptr noundef nonnull align 8 dereferenceable(44) %5, i8 0, i64 16, i1 false), !alias.scope !40
  store ptr %0, ptr %4, align 8, !alias.scope !40
  %.sroa.2.0..sroa_idx.i.i = getelementptr inbounds i8, ptr %4, i64 8
  store i64 %1, ptr %.sroa.2.0..sroa_idx.i.i, align 8, !alias.scope !40
  %6 = getelementptr inbounds nuw i8, ptr %4, i64 32
  store i64 %1, ptr %6, align 8, !alias.scope !40
  %7 = getelementptr inbounds nuw i8, ptr %4, i64 40
  store i32 %2, ptr %7, align 8, !alias.scope !40
  %8 = call noundef nonnull align 8 dereferenceable(44) ptr @_ZN4llvm3sys4path16reverse_iteratorppEv(ptr noundef nonnull align 8 dereferenceable(44) %4)
  %.sroa.03.0.copyload.i = load ptr, ptr %5, align 8
  %.sroa.24.0..sroa_idx.i = getelementptr inbounds i8, ptr %4, i64 24
  %.sroa.24.0.copyload.i = load i64, ptr %.sroa.24.0..sroa_idx.i, align 8
  call void @llvm.lifetime.end.p0(i64 48, ptr nonnull %4)
  br label %9

9:                                                ; preds = %10, %3
  %.0.i.i = phi i64 [ %.sroa.24.0.copyload.i, %3 ], [ %11, %10 ]
  %.not.i.i = icmp eq i64 %.0.i.i, 0
  br i1 %.not.i.i, label %.loopexit, label %10

10:                                               ; preds = %9
  %11 = add i64 %.0.i.i, -1
  %12 = getelementptr inbounds i8, ptr %.sroa.03.0.copyload.i, i64 %11
  %13 = load i8, ptr %12, align 1
  %14 = icmp eq i8 %13, 46
  br i1 %14, label %_ZNK4llvm9StringRef12find_last_ofEcm.exit, label %9, !llvm.loop !7

_ZNK4llvm9StringRef12find_last_ofEcm.exit:        ; preds = %10
  %15 = getelementptr inbounds i8, ptr %.sroa.03.0.copyload.i, i64 %11
  switch i64 %.sroa.24.0.copyload.i, label %.thread [
    i64 1, label %_ZN4llvmeqENS_9StringRefES0_.exit
    i64 2, label %_ZN4llvmeqENS_9StringRefES0_.exit12
  ]

_ZN4llvmeqENS_9StringRefES0_.exit:                ; preds = %_ZNK4llvm9StringRef12find_last_ofEcm.exit
  %lhsc = load i8, ptr %.sroa.03.0.copyload.i, align 1
  %16 = icmp eq i8 %lhsc, 46
  br i1 %16, label %.loopexit, label %.thread

_ZN4llvmeqENS_9StringRefES0_.exit12:              ; preds = %_ZNK4llvm9StringRef12find_last_ofEcm.exit
  %bcmp.i11 = call i32 @bcmp(ptr noundef nonnull dereferenceable(2) %.sroa.03.0.copyload.i, ptr noundef nonnull dereferenceable(2) @.str.4, i64 2)
  %17 = icmp eq i32 %bcmp.i11, 0
  br i1 %17, label %.loopexit, label %.thread

.thread:                                          ; preds = %_ZNK4llvm9StringRef12find_last_ofEcm.exit, %_ZN4llvmeqENS_9StringRefES0_.exit, %_ZN4llvmeqENS_9StringRefES0_.exit12
  %18 = sub i64 %.sroa.24.0.copyload.i, %11
  br label %.loopexit

.loopexit:                                        ; preds = %9, %_ZN4llvmeqENS_9StringRefES0_.exit, %_ZN4llvmeqENS_9StringRefES0_.exit12, %.thread
  %.sroa.6.0 = phi i64 [ %18, %.thread ], [ 0, %_ZN4llvmeqENS_9StringRefES0_.exit12 ], [ 0, %_ZN4llvmeqENS_9StringRefES0_.exit ], [ 0, %9 ]
  %.sroa.024.0 = phi ptr [ %15, %.thread ], [ null, %_ZN4llvmeqENS_9StringRefES0_.exit12 ], [ null, %_ZN4llvmeqENS_9StringRefES0_.exit ], [ null, %9 ]
  %.fca.0.insert = insertvalue { ptr, i64 } poison, ptr %.sroa.024.0, 0
  %.fca.1.insert = insertvalue { ptr, i64 } %.fca.0.insert, i64 %.sroa.6.0, 1
  ret { ptr, i64 } %.fca.1.insert
}